; Function Attrs: nounwind uwtable
define ptr @l_Array_foldlMUnsafe_fold___at_Lake_InputFileConfig_instConfigMeta___spec__1___boxed(ptr noundef %0, ptr noundef %1, ptr noundef %2, ptr noundef %3) local_unnamed_addr #1 {
  %5 = getelementptr i8, ptr %1, i64 8
  %.val = load i64, ptr %5, align 8, !tbaa !13
  %6 = ptrtoint ptr %1 to i64
  %7 = and i64 %6, 1
  %.not = icmp eq i64 %7, 0
  br i1 %.not, label %8, label %lean_dec.exit10

8:                                                ; preds = %4
  %9 = load i32, ptr %1, align 4, !tbaa !8
  %10 = icmp sgt i32 %9, 1
  br i1 %10, label %11, label %13, !prof !12

11:                                               ; preds = %8
  %12 = add nsw i32 %9, -1
  store i32 %12, ptr %1, align 4, !tbaa !8
  br label %lean_dec.exit10

13:                                               ; preds = %8
  %.not.i = icmp eq i32 %9, 0
  br i1 %.not.i, label %lean_dec.exit10, label %14

14:                                               ; preds = %13
  tail call void @lean_dec_ref_cold(ptr noundef nonnull %1) #7
  br label %lean_dec.exit10

lean_dec.exit10:                                  ; preds = %14, %13, %11, %4
  %15 = getelementptr i8, ptr %2, i64 8
  %.val15 = load i64, ptr %15, align 8, !tbaa !13
  %16 = ptrtoint ptr %2 to i64
  %17 = and i64 %16, 1
  %.not17 = icmp eq i64 %17, 0
  br i1 %.not17, label %18, label %lean_dec.exit9

18:                                               ; preds = %lean_dec.exit10
  %19 = load i32, ptr %2, align 4, !tbaa !8
  %20 = icmp sgt i32 %19, 1
  br i1 %20, label %21, label %23, !prof !12

21:                                               ; preds = %18
  %22 = add nsw i32 %19, -1
  store i32 %22, ptr %2, align 4, !tbaa !8
  br label %lean_dec.exit9

23:                                               ; preds = %18
  %.not.i11 = icmp eq i32 %19, 0
  br i1 %.not.i11, label %lean_dec.exit9, label %24

24:                                               ; preds = %23
  tail call void @lean_dec_ref_cold(ptr noundef nonnull %2) #7
  br label %lean_dec.exit9

lean_dec.exit9:                                   ; preds = %24, %23, %21, %lean_dec.exit10
  %.not30.i = icmp eq i64 %.val, %.val15
  br i1 %.not30.i, label %l_Array_foldlMUnsafe_fold___at_Lake_InputFileConfig_instConfigMeta___spec__1.exit, label %.lr.ph.i

.lr.ph.i:                                         ; preds = %lean_dec.exit9
  %25 = getelementptr inbounds nuw i8, ptr %0, i64 24
  br label %26

26:                                               ; preds = %47, %.lr.ph.i
  %.01732.i = phi i64 [ %.val, %.lr.ph.i ], [ %49, %47 ]
  %.01931.i = phi ptr [ %3, %.lr.ph.i ], [ %48, %47 ]
  %27 = getelementptr inbounds nuw [0 x ptr], ptr %25, i64 0, i64 %.01732.i
  %28 = load ptr, ptr %27, align 8, !tbaa !4
  %29 = ptrtoint ptr %28 to i64
  %30 = and i64 %29, 1
  %.not.i.i = icmp eq i64 %30, 0
  br i1 %.not.i.i, label %31, label %lean_array_uget.exit.i

31:                                               ; preds = %26
  %.val.i.i.i = load i32, ptr %28, align 4, !tbaa !8
  %32 = icmp sgt i32 %.val.i.i.i, 0
  br i1 %32, label %33, label %35, !prof !12

33:                                               ; preds = %31
  %34 = add nuw i32 %.val.i.i.i, 1
  store i32 %34, ptr %28, align 4, !tbaa !8
  br label %lean_array_uget.exit.i

35:                                               ; preds = %31
  %.not.i.i.i = icmp eq i32 %.val.i.i.i, 0
  br i1 %.not.i.i.i, label %lean_array_uget.exit.i, label %36

36:                                               ; preds = %35
  tail call void @lean_inc_ref_cold(ptr noundef nonnull %28) #7
  br label %lean_array_uget.exit.i

lean_array_uget.exit.i:                           ; preds = %36, %35, %33, %26
  %37 = getelementptr inbounds nuw i8, ptr %28, i64 8
  %38 = load ptr, ptr %37, align 8, !tbaa !4
  %39 = ptrtoint ptr %38 to i64
  %40 = and i64 %39, 1
  %.not29.i = icmp eq i64 %40, 0
  br i1 %.not29.i, label %41, label %47

41:                                               ; preds = %lean_array_uget.exit.i
  %.val.i.i = load i32, ptr %38, align 4, !tbaa !8
  %42 = icmp sgt i32 %.val.i.i, 0
  br i1 %42, label %43, label %45, !prof !12

43:                                               ; preds = %41
  %44 = add nuw i32 %.val.i.i, 1
  store i32 %44, ptr %38, align 4, !tbaa !8
  br label %47

45:                                               ; preds = %41
  %.not.i21.i = icmp eq i32 %.val.i.i, 0
  br i1 %.not.i21.i, label %47, label %46

46:                                               ; preds = %45
  tail call void @lean_inc_ref_cold(ptr noundef nonnull %38) #7
  br label %47

47:                                               ; preds = %46, %45, %43, %lean_array_uget.exit.i
  %48 = tail call ptr @l_Lean_RBNode_insert___at_Lean_NameMap_insert___spec__1___rarg(ptr noundef %.01931.i, ptr noundef %38, ptr noundef nonnull %28) #7
  %49 = add i64 %.01732.i, 1
  %.not.i16 = icmp eq i64 %49, %.val15
  br i1 %.not.i16, label %l_Array_foldlMUnsafe_fold___at_Lake_InputFileConfig_instConfigMeta___spec__1.exit, label %26

l_Array_foldlMUnsafe_fold___at_Lake_InputFileConfig_instConfigMeta___spec__1.exit: ; preds = %47, %lean_dec.exit9
  %.019.lcssa.i = phi ptr [ %3, %lean_dec.exit9 ], [ %48, %47 ]
  %50 = ptrtoint ptr %0 to i64
  %51 = and i64 %50, 1
  %.not18 = icmp eq i64 %51, 0
  br i1 %.not18, label %52, label %lean_dec.exit

52:                                               ; preds = %l_Array_foldlMUnsafe_fold___at_Lake_InputFileConfig_instConfigMeta___spec__1.exit
  %53 = load i32, ptr %0, align 4, !tbaa !8
  %54 = icmp sgt i32 %53, 1
  br i1 %54, label %55, label %57, !prof !12

55:                                               ; preds = %52
  %56 = add nsw i32 %53, -1
  store i32 %56, ptr %0, align 4, !tbaa !8
  br label %lean_dec.exit

57:                                               ; preds = %52
  %.not.i13 = icmp eq i32 %53, 0
  br i1 %.not.i13, label %lean_dec.exit, label %58

58:                                               ; preds = %57
  tail call void @lean_dec_ref_cold(ptr noundef nonnull %0) #7
  br label %lean_dec.exit

lean_dec.exit:                                    ; preds = %58, %57, %55, %l_Array_foldlMUnsafe_fold___at_Lake_InputFileConfig_instConfigMeta___spec__1.exit
  ret ptr %.019.lcssa.i
}